-----BEGIN CERTIFICATE-----
MIIInjCCB4agAwIBAgIYIBVLIVrOQgFd7spJS3OlAZlAAAAAAAAEMA0GCSqGSIb3
DQEBBQUAMIIBWTELMAkGA1UEBhMCREUxDzANBgNVBAgTBkJheWVybjEUMBIGA1UE
BxMLT2RlbHpoYXVzZW4xHTAbBgNVBAoTFGtld2VvbiBQcml2YWN5IENsb3VkMRkw
FwYDVQQLExBQS0kgU2VydmljZSBUZWFtMR4wHAYDVQQDExVrZXdlb24gQWRCbG9j
ayBSb290Q0ExIDAeBgkqhkiG9w0BCQEWEXBraUBrZXdlb24uY2VudGVyMRYwFAYK
CZImiZPyLGQBGRYGY2VudGVyMRYwFAYKCZImiZPyLGQBGRYGa2V3ZW9uMRAwDgYD
VQQqEwdUb3JzdGVuMQ8wDQYDVQQEEwZKYWhua2UxHjAcBgNVBAwTFWtld2VvbiBB
ZEJsb2NrIFJvb3RDQTE0MDIGA1UEDRMra2V3ZW9uIEFkQmxvY2sgUm9vdCBDZXJ0
aWZpY2F0aW9uIEF1dGhvcml0eTAgFw0xNTA1MDkxNDA4MDBaGA8yMDY1MDUwOTE0
MDgwMFowggFZMQswCQYDVQQGEwJERTEPMA0GA1UECBMGQmF5ZXJuMRQwEgYDVQQH
EwtPZGVsemhhdXNlbjEdMBsGA1UEChMUa2V3ZW9uIFByaXZhY3kgQ2xvdWQxGTAX
BgNVBAsTEFBLSSBTZXJ2aWNlIFRlYW0xHjAcBgNVBAMTFWtld2VvbiBBZEJsb2Nr
IFJvb3RDQTEgMB4GCSqGSIb3DQEJARYRcGtpQGtld2Vvbi5jZW50ZXIxFjAUBgoJ
kiaJk/IsZAEZFgZjZW50ZXIxFjAUBgoJkiaJk/IsZAEZFgZrZXdlb24xEDAOBgNV
BCoTB1RvcnN0ZW4xDzANBgNVBAQTBkphaG5rZTEeMBwGA1UEDBMVa2V3ZW9uIEFk
QmxvY2sgUm9vdENBMTQwMgYDVQQNEytrZXdlb24gQWRCbG9jayBSb290IENlcnRp
ZmljYXRpb24gQXV0aG9yaXR5MIIBIjANBgkqhkiG9w0BAQEFAAOCAQ8AMIIBCgKC
AQEA0LZcojuw2gGzeLa4ZjNNyhQ3Dh3qQyubAlkQhlaqRdBsbO456l3n7tQ2pj3L
MNLKtchG28DAh0zCGBk8MSYd+K/mWLbgD16XzKEsfYj1W3vekKN744rZPZd6CYUK
UsAuVH6towIpxau8tbI59q+ikbdO+cqo+378uzLZw57nFRy5vS3+BWguoWOukJ5m
+CWwo73pAb8nlkXhfmwSg1O4b1vCaQk/ck27fnFDhR079YqEiWdzM7r1ocBdDPFk
LQiLtYAlya44Wh/kpepzmB0YEbrCFEYi6TGmG10CgSOchabvsA/wfUzH0xzTZC33
VhBX9mr5kr6vY/hOFc+3oQTMVwIDAQABo4IDUjCCA04wEgYDVR0TAQH/BAgwBgEB
/wIBADAdBgNVHQ4EFgQUx5UlITyNPfyQyTQsOSj7p8+zmMkwCwYDVR0PBAQDAgGG
MEEGA1UdHwQ6MDgwNqA0oDKGMGh0dHA6Ly9wa2kua2V3ZW9uLmNlbnRlci9jZHAv
a2V3ZW9uQWRCbG9ja0NBLmNybDBPBggrBgEFBQcBAQRDMEEwPwYIKwYBBQUHMAKG
M2h0dHA6Ly9wa2kua2V3ZW9uLmNlbnRlci9wdWJsaWMva2V3ZW9uQWRCbG9ja0NB
LmNydDCCAa0GA1UdIASCAaQwggGgMIHKBgZVHSAAAQAwgb8wMwYIKwYBBQUHAgEW
J2h0dHA6Ly9wa2kua2V3ZW9uLmNlbnRlci9wb2xpY3kvbHAuaHRtbDCBhwYIKwYB
BQUHAgIwexp5Rm9yIG1vcmUgaW5mb3JtYXRpb25zIGFib3V0IG91ciBsZWdhbCBj
ZXJ0aWZpY2F0aW9uIHBvbGljeSBwbGVhc2UgdXNlIHRoZSBsaW5rIHRvIGh0dHA6
Ly9wa2kua2V3ZW9uLmNlbnRlci9wb2xpY3kvbHAuaHRtbDCB0AYGVR0gAAEBMIHF
MDMGCCsGAQUFBwIBFidodHRwOi8vcGtpLmtld2Vvbi5jZW50ZXIvcG9saWN5L21w
Lmh0bWwwgY0GCCsGAQUFBwICMIGAGn5Gb3IgbW9yZSBpbmZvcm1hdGlvbnMgYWJv
dXQgb3VyIG1hbmFnZW1lbnQgY2VydGlmaWNhdGlvbiBwb2xpY3kgcGxlYXNlIHVz
ZSB0aGUgbGluayB0byBodHRwOi8vcGtpLmtld2Vvbi5jZW50ZXIvcG9saWN5L21w
Lmh0bWwwEQYJYIZIAYb4QgEBBAQDAgAHMD8GCWCGSAGG+EIBBAQyFjBodHRwOi8v
cGtpLmtld2Vvbi5jZW50ZXIvY2RwL2tld2VvbkFkQmxvY2tDQS5jcmwwQwYJYIZI
AYb4QgEIBDYWNGh0dHA6Ly9wa2kua2V3ZW9uLmNlbnRlci9wb2xpY3kva2V3ZW9u
QWRCbG9ja0NBLmh0bWwwLgYJYIZIAYb4QgENBCEWH2tld2VvbiBBZEJsb2NrIFJv
b3RDQSBBdXRob3JpdHkwDQYJKoZIhvcNAQEFBQADggEBADi/fXcz/8honUi63XEG
YBKliI7+lo6t756fcIrTUazzo9Y+yrq1R/qN8SS1hAg54HBa8MyD9G+V7ZVbL0mv
TJRQUHTjh/v6ahBtDbXhXdt1Rm59Y+SPLV1rnVghePHWdvXPrr2/qV4nXEyNhp0O
h2O/6B+uP8ActAdQmny5DQfTgHv8IvR/a1RughaZYxyESIXBa//iYH/62tbsfNbP
iz116bfoXqSSoUeoM4GeDVN4mIvRHorFwyAPbzAjf+VIVhVUfY4AjvsJkNTrNQhp
Y9u4ioe2o3ajFCnO1w2speWTKcskNAFrx+RAxUu9xtBZUxCHlGZSxv05NX8+3tSC
H2U=
-----END CERTIFICATE-----
Certificate:
    Data:
        Version: 3 (0x2)
        Serial Number:
            20:15:4b:21:5a:ce:42:01:5d:ee:ca:49:4b:73:a5:01:99:40:00:00:00:00:00:04
    Signature Algorithm: sha1WithRSAEncryption
        Issuer: C=DE, ST=Bayern, L=Odelzhausen, O=keweon Privacy Cloud, OU=PKI Service Team, CN=keweon AdBlock RootCA/emailAddress=pki@keweon.center, DC=center, DC=keweon, GN=Torsten, SN=Jahnke/title=keweon AdBlock RootCA/description=keweon AdBlock Root Certification Authority
        Validity
            Not Before: May  9 14:08:00 2015 GMT
            Not After : May  9 14:08:00 2065 GMT
        Subject: C=DE, ST=Bayern, L=Odelzhausen, O=keweon Privacy Cloud, OU=PKI Service Team, CN=keweon AdBlock RootCA/emailAddress=pki@keweon.center, DC=center, DC=keweon, GN=Torsten, SN=Jahnke/title=keweon AdBlock RootCA/description=keweon AdBlock Root Certification Authority
        Subject Public Key Info:
            Public Key Algorithm: rsaEncryption
                Public-Key: (2048 bit)
                Modulus:
                    00:d0:b6:5c:a2:3b:b0:da:01:b3:78:b6:b8:66:33:
                    4d:ca:14:37:0e:1d:ea:43:2b:9b:02:59:10:86:56:
                    aa:45:d0:6c:6c:ee:39:ea:5d:e7:ee:d4:36:a6:3d:
                    cb:30:d2:ca:b5:c8:46:db:c0:c0:87:4c:c2:18:19:
                    3c:31:26:1d:f8:af:e6:58:b6:e0:0f:5e:97:cc:a1:
                    2c:7d:88:f5:5b:7b:de:90:a3:7b:e3:8a:d9:3d:97:
                    7a:09:85:0a:52:c0:2e:54:7e:ad:a3:02:29:c5:ab:
                    bc:b5:b2:39:f6:af:a2:91:b7:4e:f9:ca:a8:fb:7e:
                    fc:bb:32:d9:c3:9e:e7:15:1c:b9:bd:2d:fe:05:68:
                    2e:a1:63:ae:90:9e:66:f8:25:b0:a3:bd:e9:01:bf:
                    27:96:45:e1:7e:6c:12:83:53:b8:6f:5b:c2:69:09:
                    3f:72:4d:bb:7e:71:43:85:1d:3b:f5:8a:84:89:67:
                    73:33:ba:f5:a1:c0:5d:0c:f1:64:2d:08:8b:b5:80:
                    25:c9:ae:38:5a:1f:e4:a5:ea:73:98:1d:18:11:ba:
                    c2:14:46:22:e9:31:a6:1b:5d:02:81:23:9c:85:a6:
                    ef:b0:0f:f0:7d:4c:c7:d3:1c:d3:64:2d:f7:56:10:
                    57:f6:6a:f9:92:be:af:63:f8:4e:15:cf:b7:a1:04:
                    cc:57
                Exponent: 65537 (0x10001)
        X509v3 extensions:
            X509v3 Basic Constraints: critical
                CA:TRUE, pathlen:0
            X509v3 Subject Key Identifier: 
                C7:95:25:21:3C:8D:3D:FC:90:C9:34:2C:39:28:FB:A7:CF:B3:98:C9
            X509v3 Key Usage: 
                Digital Signature, Certificate Sign, CRL Sign
            X509v3 CRL Distribution Points: 

                Full Name:
                  URI:http://pki.keweon.center/cdp/keweonAdBlockCA.crl

            Authority Information Access: 
                CA Issuers - URI:http://pki.keweon.center/public/keweonAdBlockCA.crt

            X509v3 Certificate Policies: 
                Policy: 2.5.29.32.0.1.0
                  CPS: http://pki.keweon.center/policy/lp.html
                  User Notice:
                    Explicit Text: For more informations about our legal certification policy please use the link to http://pki.keweon.center/policy/lp.html
                Policy: 2.5.29.32.0.1.1
                  CPS: http://pki.keweon.center/policy/mp.html
                  User Notice:
                    Explicit Text: For more informations about our management certification policy please use the link to http://pki.keweon.center/policy/mp.html

            Netscape Cert Type: 
                SSL CA, S/MIME CA, Object Signing CA
            Netscape CA Revocation Url: 
                http://pki.keweon.center/cdp/keweonAdBlockCA.crl
            Netscape CA Policy Url: 
                http://pki.keweon.center/policy/keweonAdBlockCA.html
            Netscape Comment: 
                keweon AdBlock RootCA Authority
    Signature Algorithm: sha1WithRSAEncryption
         38:bf:7d:77:33:ff:c8:68:9d:48:ba:dd:71:06:60:12:a5:88:
         8e:fe:96:8e:ad:ef:9e:9f:70:8a:d3:51:ac:f3:a3:d6:3e:ca:
         ba:b5:47:fa:8d:f1:24:b5:84:08:39:e0:70:5a:f0:cc:83:f4:
         6f:95:ed:95:5b:2f:49:af:4c:94:50:50:74:e3:87:fb:fa:6a:
         10:6d:0d:b5:e1:5d:db:75:46:6e:7d:63:e4:8f:2d:5d:6b:9d:
         58:21:78:f1:d6:76:f5:cf:ae:bd:bf:a9:5e:27:5c:4c:8d:86:
         9d:0e:87:63:bf:e8:1f:ae:3f:c0:1c:b4:07:50:9a:7c:b9:0d:
         07:d3:80:7b:fc:22:f4:7f:6b:54:6e:82:16:99:63:1c:84:48:
         85:c1:6b:ff:e2:60:7f:fa:da:d6:ec:7c:d6:cf:8b:3d:75:e9:
         b7:e8:5e:a4:92:a1:47:a8:33:81:9e:0d:53:78:98:8b:d1:1e:
         8a:c5:c3:20:0f:6f:30:23:7f:e5:48:56:15:54:7d:8e:00:8e:
         fb:09:90:d4:eb:35:08:69:63:db:b8:8a:87:b6:a3:76:a3:14:
         29:ce:d7:0d:ac:a5:e5:93:29:cb:24:34:01:6b:c7:e4:40:c5:
         4b:bd:c6:d0:59:53:10:87:94:66:52:c6:fd:39:35:7f:3e:de:
         d4:82:1f:65
